target datalayout = "e-m:e-p270:32:32-p271:32:32-p272:64:64-i64:64-i128:128-f80:128-n8:16:32:64-S128"
target triple = "x86_64-pc-linux-gnu"

%"class.Yosys::hashlib::dict" = type <{ %"class.std::vector", %"class.std::vector.0", [8 x i8] }>
%"class.std::vector" = type { %"struct.std::_Vector_base" }
%"struct.std::_Vector_base" = type { %"struct.std::_Vector_base<int, std::allocator<int>>::_Vector_impl" }
%"struct.std::_Vector_base<int, std::allocator<int>>::_Vector_impl" = type { %"struct.std::_Vector_base<int, std::allocator<int>>::_Vector_impl_data" }
%"struct.std::_Vector_base<int, std::allocator<int>>::_Vector_impl_data" = type { ptr, ptr, ptr }
%"class.std::vector.0" = type { %"struct.std::_Vector_base.1" }
%"struct.std::_Vector_base.1" = type { %"struct.std::_Vector_base<Yosys::hashlib::dict<Yosys::RTLIL::IdString, int>::entry_t, std::allocator<Yosys::hashlib::dict<Yosys::RTLIL::IdString, int>::entry_t>>::_Vector_impl" }
%"struct.std::_Vector_base<Yosys::hashlib::dict<Yosys::RTLIL::IdString, int>::entry_t, std::allocator<Yosys::hashlib::dict<Yosys::RTLIL::IdString, int>::entry_t>>::_Vector_impl" = type { %"struct.std::_Vector_base<Yosys::hashlib::dict<Yosys::RTLIL::IdString, int>::entry_t, std::allocator<Yosys::hashlib::dict<Yosys::RTLIL::IdString, int>::entry_t>>::_Vector_impl_data" }
%"struct.std::_Vector_base<Yosys::hashlib::dict<Yosys::RTLIL::IdString, int>::entry_t, std::allocator<Yosys::hashlib::dict<Yosys::RTLIL::IdString, int>::entry_t>>::_Vector_impl_data" = type { ptr, ptr, ptr }
%"struct.Yosys::RTLIL::IdString" = type { i32 }
%"class.std::vector.120" = type { %"struct.std::_Vector_base.121" }
%"struct.std::_Vector_base.121" = type { %"struct.std::_Vector_base<char *, std::allocator<char *>>::_Vector_impl" }
%"struct.std::_Vector_base<char *, std::allocator<char *>>::_Vector_impl" = type { %"struct.std::_Vector_base<char *, std::allocator<char *>>::_Vector_impl_data" }
%"struct.std::_Vector_base<char *, std::allocator<char *>>::_Vector_impl_data" = type { ptr, ptr, ptr }

@_ZN12_GLOBAL__N_113auto_name_mapE = internal global %"class.Yosys::hashlib::dict" zeroinitializer, align 8
@.str.13 = private unnamed_addr constant [74 x i8] c"vector::_M_range_check: __n (which is %zu) >= this->size() (which is %zu)\00", align 1
@_ZN5Yosys5RTLIL8IdString18global_id_storage_E = external global %"class.std::vector.120", align 8
@_ZN12_GLOBAL__N_18norenameE = internal global i8 0, align 1
@_ZN12_GLOBAL__N_117auto_name_counterE = internal global i32 0, align 4
@_ZN12_GLOBAL__N_116auto_name_offsetE = internal global i32 0, align 4

; Function Attrs: mustprogress nounwind uwtable
define linkonce_odr noundef i64 @_ZNKSt6vectorIPcSaIS0_EE4sizeEv(ptr noundef nonnull align 8 dereferenceable(24) %0) #4 comdat align 2 {
  %2 = alloca ptr, align 8
  store ptr %0, ptr %2, align 8, !tbaa !281
  %3 = load ptr, ptr %2, align 8
  %4 = getelementptr inbounds nuw %"struct.std::_Vector_base.121", ptr %3, i32 0, i32 0
  %5 = getelementptr inbounds nuw %"struct.std::_Vector_base<char *, std::allocator<char *>>::_Vector_impl_data", ptr %4, i32 0, i32 1
  %6 = load ptr, ptr %5, align 8, !tbaa !289
  %7 = getelementptr inbounds nuw %"struct.std::_Vector_base.121", ptr %3, i32 0, i32 0
  %8 = getelementptr inbounds nuw %"struct.std::_Vector_base<char *, std::allocator<char *>>::_Vector_impl_data", ptr %7, i32 0, i32 0
  %9 = load ptr, ptr %8, align 8, !tbaa !287
  %10 = ptrtoint ptr %6 to i64
  %11 = ptrtoint ptr %9 to i64
  %12 = sub i64 %10, %11
  %13 = sdiv exact i64 %12, 8
  ret i64 %13
}

; Function Attrs: mustprogress nounwind uwtable
define linkonce_odr noundef nonnull align 8 dereferenceable(8) ptr @_ZNSt6vectorIPcSaIS0_EEixEm(ptr noundef nonnull align 8 dereferenceable(24) %0, i64 noundef %1) #4 comdat align 2 {
  %3 = alloca ptr, align 8
  %4 = alloca i64, align 8
  store ptr %0, ptr %3, align 8, !tbaa !281
  store i64 %1, ptr %4, align 8, !tbaa !69
  %5 = load ptr, ptr %3, align 8
  %6 = getelementptr inbounds nuw %"struct.std::_Vector_base.121", ptr %5, i32 0, i32 0
  %7 = getelementptr inbounds nuw %"struct.std::_Vector_base<char *, std::allocator<char *>>::_Vector_impl_data", ptr %6, i32 0, i32 0
  %8 = load ptr, ptr %7, align 8, !tbaa !287
  %9 = load i64, ptr %4, align 8, !tbaa !69
  %10 = getelementptr inbounds nuw ptr, ptr %8, i64 %9
  ret ptr %10
}

; Function Attrs: mustprogress uwtable
define linkonce_odr void @_ZNKSt6vectorIPcSaIS0_EE14_M_range_checkEm(ptr noundef nonnull align 8 dereferenceable(24) %0, i64 noundef %1) #6 comdat align 2 {
  %3 = alloca ptr, align 8
  %4 = alloca i64, align 8
  store ptr %0, ptr %3, align 8, !tbaa !281
  store i64 %1, ptr %4, align 8, !tbaa !69
  %5 = load ptr, ptr %3, align 8
  %6 = load i64, ptr %4, align 8, !tbaa !69
  %7 = call noundef i64 @_ZNKSt6vectorIPcSaIS0_EE4sizeEv(ptr noundef nonnull align 8 dereferenceable(24) %5) #3
  %8 = icmp uge i64 %6, %7
  br i1 %8, label %9, label %12

9:                                                ; preds = %2
  %10 = load i64, ptr %4, align 8, !tbaa !69
  %11 = call noundef i64 @_ZNKSt6vectorIPcSaIS0_EE4sizeEv(ptr noundef nonnull align 8 dereferenceable(24) %5) #3
  call void (ptr, ...) @_ZSt24__throw_out_of_range_fmtPKcz(ptr noundef @.str.13, i64 noundef %10, i64 noundef %11) #24
  unreachable

12:                                               ; preds = %2
  ret void
}

; Function Attrs: mustprogress uwtable
define linkonce_odr noundef nonnull align 8 dereferenceable(8) ptr @_ZNSt6vectorIPcSaIS0_EE2atEm(ptr noundef nonnull align 8 dereferenceable(24) %0, i64 noundef %1) #6 comdat align 2 {
  %3 = alloca ptr, align 8
  %4 = alloca i64, align 8
  store ptr %0, ptr %3, align 8, !tbaa !281
  store i64 %1, ptr %4, align 8, !tbaa !69
  %5 = load ptr, ptr %3, align 8
  %6 = load i64, ptr %4, align 8, !tbaa !69
  call void @_ZNKSt6vectorIPcSaIS0_EE14_M_range_checkEm(ptr noundef nonnull align 8 dereferenceable(24) %5, i64 noundef %6)
  %7 = load i64, ptr %4, align 8, !tbaa !69
  %8 = call noundef nonnull align 8 dereferenceable(8) ptr @_ZNSt6vectorIPcSaIS0_EEixEm(ptr noundef nonnull align 8 dereferenceable(24) %5, i64 noundef %7) #3
  ret ptr %8
}

; Function Attrs: inlinehint mustprogress nounwind willreturn memory(read) uwtable
define available_externally i32 @atoi(ptr noundef nonnull %0) #18 {
  %2 = alloca ptr, align 8
  store ptr %0, ptr %2, align 8, !tbaa !242
  %3 = load ptr, ptr %2, align 8, !tbaa !242
  %4 = call i64 @strtol(ptr noundef %3, ptr noundef null, i32 noundef 10) #3
  %5 = trunc i64 %4 to i32
  ret i32 %5
}

; Function Attrs: inlinehint mustprogress uwtable
define linkonce_odr noundef ptr @_ZNK5Yosys5RTLIL8IdString5c_strEv(ptr noundef nonnull align 4 dereferenceable(4) %0) #7 comdat align 2 {
  %2 = alloca ptr, align 8
  store ptr %0, ptr %2, align 8, !tbaa !21
  %3 = load ptr, ptr %2, align 8
  %4 = getelementptr inbounds nuw %"struct.Yosys::RTLIL::IdString", ptr %3, i32 0, i32 0
  %5 = load i32, ptr %4, align 4, !tbaa !23
  %6 = sext i32 %5 to i64
  %7 = call noundef nonnull align 8 dereferenceable(8) ptr @_ZNSt6vectorIPcSaIS0_EE2atEm(ptr noundef nonnull align 8 dereferenceable(24) @_ZN5Yosys5RTLIL8IdString18global_id_storage_E, i64 noundef %6)
  %8 = load ptr, ptr %7, align 8, !tbaa !242
  ret ptr %8
}

; Function Attrs: mustprogress uwtable
define internal void @_ZN12_GLOBAL__N_121reset_auto_counter_idEN5Yosys5RTLIL8IdStringEb(ptr noundef %0, i1 noundef zeroext %1) #6 {
  %3 = alloca ptr, align 8
  %4 = alloca i8, align 1
  %5 = alloca ptr, align 8
  %6 = alloca i32, align 4
  %7 = alloca i32, align 4
  %8 = alloca i32, align 4
  store ptr %0, ptr %3, align 8, !tbaa !21
  %9 = zext i1 %1 to i8
  store i8 %9, ptr %4, align 1, !tbaa !214
  call void @llvm.lifetime.start.p0(i64 8, ptr %5) #3
  %10 = call noundef ptr @_ZNK5Yosys5RTLIL8IdString5c_strEv(ptr noundef nonnull align 4 dereferenceable(4) %0)
  store ptr %10, ptr %5, align 8, !tbaa !242
  %11 = load ptr, ptr %5, align 8, !tbaa !242
  %12 = load i8, ptr %11, align 1, !tbaa !180
  %13 = sext i8 %12 to i32
  %14 = icmp eq i32 %13, 36
  br i1 %14, label %15, label %25

15:                                               ; preds = %2
  %16 = load i8, ptr %4, align 1, !tbaa !214, !range !279, !noundef !280
  %17 = trunc i8 %16 to i1
  br i1 %17, label %18, label %25

18:                                               ; preds = %15
  %19 = load i8, ptr @_ZN12_GLOBAL__N_18norenameE, align 1, !tbaa !214, !range !279, !noundef !280
  %20 = trunc i8 %19 to i1
  br i1 %20, label %25, label %21

21:                                               ; preds = %18
  %22 = load i32, ptr @_ZN12_GLOBAL__N_117auto_name_counterE, align 4, !tbaa !121
  %23 = add nsw i32 %22, 1
  store i32 %23, ptr @_ZN12_GLOBAL__N_117auto_name_counterE, align 4, !tbaa !121
  %24 = call noundef nonnull align 4 dereferenceable(4) ptr @_ZN5Yosys7hashlib4dictINS_5RTLIL8IdStringEiNS0_8hash_opsIS3_EEEixERKS3_(ptr noundef nonnull align 8 dereferenceable(49) @_ZN12_GLOBAL__N_113auto_name_mapE, ptr noundef nonnull align 4 dereferenceable(4) %0)
  store i32 %22, ptr %24, align 4, !tbaa !121
  br label %25

25:                                               ; preds = %21, %18, %15, %2
  %26 = load ptr, ptr %5, align 8, !tbaa !242
  %27 = getelementptr inbounds i8, ptr %26, i64 0
  %28 = load i8, ptr %27, align 1, !tbaa !180
  %29 = sext i8 %28 to i32
  %30 = icmp ne i32 %29, 92
  br i1 %30, label %43, label %31

31:                                               ; preds = %25
  %32 = load ptr, ptr %5, align 8, !tbaa !242
  %33 = getelementptr inbounds i8, ptr %32, i64 1
  %34 = load i8, ptr %33, align 1, !tbaa !180
  %35 = sext i8 %34 to i32
  %36 = icmp ne i32 %35, 95
  br i1 %36, label %43, label %37

37:                                               ; preds = %31
  %38 = load ptr, ptr %5, align 8, !tbaa !242
  %39 = getelementptr inbounds i8, ptr %38, i64 2
  %40 = load i8, ptr %39, align 1, !tbaa !180
  %41 = sext i8 %40 to i32
  %42 = icmp eq i32 %41, 0
  br i1 %42, label %43, label %44

43:                                               ; preds = %37, %31, %25
  store i32 1, ptr %6, align 4
  br label %106

44:                                               ; preds = %37
  call void @llvm.lifetime.start.p0(i64 4, ptr %7) #3
  store i32 2, ptr %7, align 4, !tbaa !121
  br label %45

45:                                               ; preds = %90, %44
  %46 = load ptr, ptr %5, align 8, !tbaa !242
  %47 = load i32, ptr %7, align 4, !tbaa !121
  %48 = sext i32 %47 to i64
  %49 = getelementptr inbounds i8, ptr %46, i64 %48
  %50 = load i8, ptr %49, align 1, !tbaa !180
  %51 = sext i8 %50 to i32
  %52 = icmp ne i32 %51, 0
  br i1 %52, label %54, label %53

53:                                               ; preds = %45
  store i32 2, ptr %6, align 4
  br label %93

54:                                               ; preds = %45
  %55 = load ptr, ptr %5, align 8, !tbaa !242
  %56 = load i32, ptr %7, align 4, !tbaa !121
  %57 = sext i32 %56 to i64
  %58 = getelementptr inbounds i8, ptr %55, i64 %57
  %59 = load i8, ptr %58, align 1, !tbaa !180
  %60 = sext i8 %59 to i32
  %61 = icmp eq i32 %60, 95
  br i1 %61, label %62, label %72

62:                                               ; preds = %54
  %63 = load ptr, ptr %5, align 8, !tbaa !242
  %64 = load i32, ptr %7, align 4, !tbaa !121
  %65 = add nsw i32 %64, 1
  %66 = sext i32 %65 to i64
  %67 = getelementptr inbounds i8, ptr %63, i64 %66
  %68 = load i8, ptr %67, align 1, !tbaa !180
  %69 = sext i8 %68 to i32
  %70 = icmp eq i32 %69, 0
  br i1 %70, label %71, label %72

71:                                               ; preds = %62
  br label %90

72:                                               ; preds = %62, %54
  %73 = load ptr, ptr %5, align 8, !tbaa !242
  %74 = load i32, ptr %7, align 4, !tbaa !121
  %75 = sext i32 %74 to i64
  %76 = getelementptr inbounds i8, ptr %73, i64 %75
  %77 = load i8, ptr %76, align 1, !tbaa !180
  %78 = sext i8 %77 to i32
  %79 = icmp slt i32 %78, 48
  br i1 %79, label %88, label %80

80:                                               ; preds = %72
  %81 = load ptr, ptr %5, align 8, !tbaa !242
  %82 = load i32, ptr %7, align 4, !tbaa !121
  %83 = sext i32 %82 to i64
  %84 = getelementptr inbounds i8, ptr %81, i64 %83
  %85 = load i8, ptr %84, align 1, !tbaa !180
  %86 = sext i8 %85 to i32
  %87 = icmp sgt i32 %86, 57
  br i1 %87, label %88, label %89

88:                                               ; preds = %80, %72
  store i32 1, ptr %6, align 4
  br label %93

89:                                               ; preds = %80
  br label %90

90:                                               ; preds = %89, %71
  %91 = load i32, ptr %7, align 4, !tbaa !121
  %92 = add nsw i32 %91, 1
  store i32 %92, ptr %7, align 4, !tbaa !121
  br label %45, !llvm.loop !643

93:                                               ; preds = %88, %53
  call void @llvm.lifetime.end.p0(i64 4, ptr %7) #3
  %94 = load i32, ptr %6, align 4
  switch i32 %94, label %106 [
    i32 2, label %95
  ]

95:                                               ; preds = %93
  call void @llvm.lifetime.start.p0(i64 4, ptr %8) #3
  %96 = load ptr, ptr %5, align 8, !tbaa !242
  %97 = getelementptr inbounds i8, ptr %96, i64 2
  %98 = call i32 @atoi(ptr noundef %97) #26
  store i32 %98, ptr %8, align 4, !tbaa !121
  %99 = load i32, ptr %8, align 4, !tbaa !121
  %100 = load i32, ptr @_ZN12_GLOBAL__N_116auto_name_offsetE, align 4, !tbaa !121
  %101 = icmp sge i32 %99, %100
  br i1 %101, label %102, label %105

102:                                              ; preds = %95
  %103 = load i32, ptr %8, align 4, !tbaa !121
  %104 = add nsw i32 %103, 1
  store i32 %104, ptr @_ZN12_GLOBAL__N_116auto_name_offsetE, align 4, !tbaa !121
  br label %105

105:                                              ; preds = %102, %95
  call void @llvm.lifetime.end.p0(i64 4, ptr %8) #3
  store i32 0, ptr %6, align 4
  br label %106

106:                                              ; preds = %105, %93, %43
  call void @llvm.lifetime.end.p0(i64 8, ptr %5) #3
  %107 = load i32, ptr %6, align 4
  switch i32 %107, label %109 [
    i32 0, label %108
    i32 1, label %108
  ]

108:                                              ; preds = %106, %106
  ret void

109:                                              ; preds = %106
  unreachable
}