; Function Attrs: mustprogress uwtable
define internal fastcc void @_ZN12_GLOBAL__N_121reset_auto_counter_idEN5Yosys5RTLIL8IdStringEb(ptr noundef nonnull %0, i1 noundef zeroext %1) unnamed_addr #8 {
  %3 = load i32, ptr %0, align 4, !tbaa !13
  %4 = sext i32 %3 to i64
  %5 = load ptr, ptr getelementptr inbounds nuw (i8, ptr @_ZN5Yosys5RTLIL8IdString18global_id_storage_E, i64 8), align 8, !tbaa !110
  %6 = load ptr, ptr @_ZN5Yosys5RTLIL8IdString18global_id_storage_E, align 8, !tbaa !114
  %7 = ptrtoint ptr %5 to i64
  %8 = ptrtoint ptr %6 to i64
  %9 = sub i64 %7, %8
  %10 = ashr exact i64 %9, 3
  %.not.i.i.i = icmp ugt i64 %10, %4
  br i1 %.not.i.i.i, label %_ZNK5Yosys5RTLIL8IdString5c_strEv.exit, label %11

11:                                               ; preds = %2
  tail call void (ptr, ...) @_ZSt24__throw_out_of_range_fmtPKcz(ptr noundef nonnull @.str.13, i64 noundef %4, i64 noundef %10) #33
  unreachable

_ZNK5Yosys5RTLIL8IdString5c_strEv.exit:           ; preds = %2
  %12 = getelementptr inbounds nuw ptr, ptr %6, i64 %4
  %13 = load ptr, ptr %12, align 8, !tbaa !115
  %14 = load i8, ptr %13, align 1, !tbaa !73
  %15 = icmp eq i8 %14, 36
  %brmerge.not = and i1 %1, %15
  br i1 %brmerge.not, label %16, label %thread-pre-split

16:                                               ; preds = %_ZNK5Yosys5RTLIL8IdString5c_strEv.exit
  %.b23 = load i1, ptr @_ZN12_GLOBAL__N_18norenameE, align 1
  br i1 %.b23, label %.thread, label %17

17:                                               ; preds = %16
  %18 = load i32, ptr @_ZN12_GLOBAL__N_117auto_name_counterE, align 4, !tbaa !23
  %19 = add nsw i32 %18, 1
  store i32 %19, ptr @_ZN12_GLOBAL__N_117auto_name_counterE, align 4, !tbaa !23
  %20 = tail call noundef nonnull align 4 dereferenceable(4) ptr @_ZN5Yosys7hashlib4dictINS_5RTLIL8IdStringEiNS0_8hash_opsIS3_EEEixERKS3_(ptr noundef nonnull align 8 dereferenceable(49) @_ZN12_GLOBAL__N_113auto_name_mapE, ptr noundef nonnull align 4 dereferenceable(4) %0)
  store i32 %18, ptr %20, align 4, !tbaa !23
  %.pr.pre = load i8, ptr %13, align 1, !tbaa !73
  br label %thread-pre-split

thread-pre-split:                                 ; preds = %17, %_ZNK5Yosys5RTLIL8IdString5c_strEv.exit
  %21 = phi i8 [ %14, %_ZNK5Yosys5RTLIL8IdString5c_strEv.exit ], [ %.pr.pre, %17 ]
  %.not = icmp eq i8 %21, 92
  br i1 %.not, label %22, label %.thread

22:                                               ; preds = %thread-pre-split
  %23 = getelementptr inbounds nuw i8, ptr %13, i64 1
  %24 = load i8, ptr %23, align 1, !tbaa !73
  %.not24 = icmp eq i8 %24, 95
  br i1 %.not24, label %25, label %.thread

25:                                               ; preds = %22
  %26 = getelementptr inbounds nuw i8, ptr %13, i64 2
  %27 = load i8, ptr %26, align 1, !tbaa !73
  %28 = icmp eq i8 %27, 0
  br i1 %28, label %.thread, label %.preheader.preheader

.preheader.preheader:                             ; preds = %25
  %invariant.gep = getelementptr inbounds nuw i8, ptr %13, i64 1
  br label %.preheader

.preheader:                                       ; preds = %.preheader.preheader, %._crit_edge
  %29 = phi i8 [ %27, %.preheader.preheader ], [ %.pre, %._crit_edge ]
  %indvars.iv = phi i64 [ 2, %.preheader.preheader ], [ %indvars.iv.next, %._crit_edge ]
  switch i8 %29, label %33 [
    i8 0, label %.critedge
    i8 95, label %30
  ]

30:                                               ; preds = %.preheader
  %gep = getelementptr inbounds nuw i8, ptr %invariant.gep, i64 %indvars.iv
  %31 = load i8, ptr %gep, align 1, !tbaa !73
  %32 = icmp eq i8 %31, 0
  br i1 %32, label %._crit_edge, label %.thread

33:                                               ; preds = %.preheader
  %34 = add i8 %29, -58
  %or.cond = icmp ult i8 %34, -10
  br i1 %or.cond, label %.thread, label %._crit_edge

._crit_edge:                                      ; preds = %33, %30
  %indvars.iv.next = add nuw nsw i64 %indvars.iv, 1
  %.phi.trans.insert = getelementptr inbounds nuw i8, ptr %13, i64 %indvars.iv.next
  %.pre = load i8, ptr %.phi.trans.insert, align 1, !tbaa !73
  br label %.preheader, !llvm.loop !165

.critedge:                                        ; preds = %.preheader
  %35 = tail call i64 @strtol(ptr noundef nonnull captures(none) %26, ptr noundef null, i32 noundef 10) #32
  %36 = trunc i64 %35 to i32
  %37 = load i32, ptr @_ZN12_GLOBAL__N_116auto_name_offsetE, align 4, !tbaa !23
  %.not26 = icmp sgt i32 %37, %36
  br i1 %.not26, label %.thread, label %38

38:                                               ; preds = %.critedge
  %39 = add nuw nsw i32 %36, 1
  store i32 %39, ptr @_ZN12_GLOBAL__N_116auto_name_offsetE, align 4, !tbaa !23
  br label %.thread

.thread:                                          ; preds = %30, %33, %16, %.critedge, %38, %thread-pre-split, %22, %25
  ret void
}